target datalayout = "e-m:e-p270:32:32-p271:32:32-p272:64:64-i64:64-i128:128-f80:128-n8:16:32:64-S128"
target triple = "x86_64-pc-linux-gnu"

%struct.lxb_html_parser_t = type { ptr, ptr, ptr, ptr, ptr, i32, i32, i64 }
%struct.lxb_html_tree = type { ptr, ptr, ptr, ptr, ptr, ptr, ptr, %struct.lxb_html_tree_pending_table_t, ptr, i8, i8, i8, i8, i8, i8, ptr, ptr, ptr, i32, i64 }
%struct.lxb_html_tree_pending_table_t = type { ptr, i8 }

; Function Attrs: nounwind uwtable
define internal i32 @lxb_html_tree_chunk(ptr noundef %0, ptr noundef %1, i64 noundef %2) #0 {
  %4 = alloca ptr, align 8
  %5 = alloca ptr, align 8
  %6 = alloca i64, align 8
  store ptr %0, ptr %4, align 8
  store ptr %1, ptr %5, align 8
  store i64 %2, ptr %6, align 8
  %7 = load ptr, ptr %4, align 8
  %8 = getelementptr inbounds %struct.lxb_html_tree, ptr %7, i32 0, i32 0
  %9 = load ptr, ptr %8, align 8
  %10 = load ptr, ptr %5, align 8
  %11 = load i64, ptr %6, align 8
  %12 = call i32 @lxb_html_tokenizer_chunk(ptr noundef %9, ptr noundef %10, i64 noundef %11)
  ret i32 %12
}

; Function Attrs: nounwind uwtable
define hidden i32 @lxb_html_parse_chunk_process(ptr noundef %0, ptr noundef %1, i64 noundef %2) #0 {
  %4 = alloca i32, align 4
  %5 = alloca ptr, align 8
  %6 = alloca ptr, align 8
  %7 = alloca i64, align 8
  store ptr %0, ptr %5, align 8
  store ptr %1, ptr %6, align 8
  store i64 %2, ptr %7, align 8
  %8 = load ptr, ptr %5, align 8
  %9 = getelementptr inbounds %struct.lxb_html_parser_t, ptr %8, i32 0, i32 5
  %10 = load i32, ptr %9, align 8
  %11 = icmp ne i32 %10, 1
  br i1 %11, label %12, label %13

12:                                               ; preds = %3
  store i32 10, ptr %4, align 4
  br label %33

13:                                               ; preds = %3
  %14 = load ptr, ptr %5, align 8
  %15 = getelementptr inbounds %struct.lxb_html_parser_t, ptr %14, i32 0, i32 1
  %16 = load ptr, ptr %15, align 8
  %17 = load ptr, ptr %6, align 8
  %18 = load i64, ptr %7, align 8
  %19 = call i32 @lxb_html_tree_chunk(ptr noundef %16, ptr noundef %17, i64 noundef %18)
  %20 = load ptr, ptr %5, align 8
  %21 = getelementptr inbounds %struct.lxb_html_parser_t, ptr %20, i32 0, i32 6
  store i32 %19, ptr %21, align 4
  %22 = load ptr, ptr %5, align 8
  %23 = getelementptr inbounds %struct.lxb_html_parser_t, ptr %22, i32 0, i32 6
  %24 = load i32, ptr %23, align 4
  %25 = icmp ne i32 %24, 0
  br i1 %25, label %26, label %29

26:                                               ; preds = %13
  %27 = load ptr, ptr %5, align 8
  %28 = getelementptr inbounds %struct.lxb_html_parser_t, ptr %27, i32 0, i32 5
  store i32 4, ptr %28, align 8
  br label %29

29:                                               ; preds = %26, %13
  %30 = load ptr, ptr %5, align 8
  %31 = getelementptr inbounds %struct.lxb_html_parser_t, ptr %30, i32 0, i32 6
  %32 = load i32, ptr %31, align 4
  store i32 %32, ptr %4, align 4
  br label %33

33:                                               ; preds = %29, %12
  %34 = load i32, ptr %4, align 4
  ret i32 %34
}