; Function Attrs: nounwind uwtable
define hidden i32 @lxb_html_parse_chunk_process(ptr nocapture noundef %0, ptr noundef %1, i64 noundef %2) local_unnamed_addr #0 {
  %4 = getelementptr inbounds i8, ptr %0, i64 40
  %5 = load i32, ptr %4, align 8
  %.not = icmp eq i32 %5, 1
  br i1 %.not, label %6, label %12

6:                                                ; preds = %3
  %7 = getelementptr inbounds i8, ptr %0, i64 8
  %8 = load ptr, ptr %7, align 8
  %.val = load ptr, ptr %8, align 8
  %9 = tail call i32 @lxb_html_tokenizer_chunk(ptr noundef %.val, ptr noundef %1, i64 noundef %2) #7
  %10 = getelementptr inbounds i8, ptr %0, i64 44
  store i32 %9, ptr %10, align 4
  %.not8 = icmp eq i32 %9, 0
  br i1 %.not8, label %12, label %11

11:                                               ; preds = %6
  store i32 4, ptr %4, align 8
  br label %12

12:                                               ; preds = %6, %11, %3
  %.0 = phi i32 [ 10, %3 ], [ %9, %11 ], [ 0, %6 ]
  ret i32 %.0
}